(lp0
VB-road
p1
aVB-intersection
p2
aVE-roadno
p3
aVI-roadno
p4
aVE-community
p5
aVE-cellno
p6
aVI-town
p7
aVE-subpoi
p8
aVI-intersection
p9
aVB-assist
p10
aVE-prov
p11
aVB-poi
p12
aVE-road
p13
aVI-assist
p14
aVI-prov
p15
aVI-distance
p16
aVE-houseno
p17
aVB-distance
p18
aVE-devzone
p19
aVB-houseno
p20
aVB-town
p21
aVE-district
p22
aVE-poi
p23
aVI-road
p24
aVB-cellno
p25
aVI-houseno
p26
aVI-floorno
p27
aVI-district
p28
aVI-subpoi
p29
aVB-devzone
p30
aVE-town
p31
aVE-intersection
p32
aVB-city
p33
aVB-village_group
p34
aVI-village_group
p35
aVE-assist
p36
aVE-floorno
p37
aVE-village_group
p38
aVI-city
p39
aVB-district
p40
aVI-cellno
p41
aVB-prov
p42
aVO
p43
aVI-community
p44
aVE-city
p45
aVS-assist
p46
aVS-district
p47
aVB-subpoi
p48
aVB-roadno
p49
aVI-poi
p50
aVS-community
p51
aVB-community
p52
aVB-floorno
p53
aVS-intersection
p54
aVS-poi
p55
aVE-distance
p56
aVI-devzone
p57
a.